target datalayout = "e-m:e-p270:32:32-p271:32:32-p272:64:64-i64:64-i128:128-f80:128-n8:16:32:64-S128"
target triple = "x86_64-pc-linux-gnu"

%struct.lxb_html_tokenizer = type { ptr, ptr, ptr, ptr, ptr, ptr, ptr, ptr, ptr, ptr, ptr, ptr, ptr, ptr, ptr, i64, ptr, ptr, ptr, ptr, ptr, i64, i64, ptr, ptr, i64, i64, i32, i32, i8, i32, i32, i8, ptr, i64 }

; Function Attrs: nounwind uwtable
define internal ptr @lxb_html_tokenizer_state_char_ref_hexademical(ptr noundef %0, ptr noundef %1, ptr noundef %2) #0 {
  %4 = alloca ptr, align 8
  %5 = alloca ptr, align 8
  %6 = alloca ptr, align 8
  %7 = alloca ptr, align 8
  store ptr %0, ptr %5, align 8
  store ptr %1, ptr %6, align 8
  store ptr %2, ptr %7, align 8
  br label %8

8:                                                ; preds = %58, %3
  %9 = load ptr, ptr %6, align 8
  %10 = load ptr, ptr %7, align 8
  %11 = icmp ne ptr %9, %10
  br i1 %11, label %12, label %61

12:                                               ; preds = %8
  %13 = load ptr, ptr %6, align 8
  %14 = load i8, ptr %13, align 1
  %15 = zext i8 %14 to i64
  %16 = getelementptr inbounds [256 x i8], ptr @lexbor_str_res_map_hex, i64 0, i64 %15
  %17 = load i8, ptr %16, align 1
  %18 = zext i8 %17 to i32
  %19 = icmp eq i32 %18, 255
  br i1 %19, label %20, label %38

20:                                               ; preds = %12
  %21 = load ptr, ptr %5, align 8
  %22 = getelementptr inbounds %struct.lxb_html_tokenizer, ptr %21, i32 0, i32 1
  %23 = load ptr, ptr %22, align 8
  %24 = load ptr, ptr %5, align 8
  %25 = getelementptr inbounds %struct.lxb_html_tokenizer, ptr %24, i32 0, i32 0
  store ptr %23, ptr %25, align 8
  %26 = load ptr, ptr %6, align 8
  %27 = load i8, ptr %26, align 1
  %28 = zext i8 %27 to i32
  %29 = icmp eq i32 %28, 59
  br i1 %29, label %30, label %33

30:                                               ; preds = %20
  %31 = load ptr, ptr %6, align 8
  %32 = getelementptr inbounds i8, ptr %31, i32 1
  store ptr %32, ptr %6, align 8
  br label %33

33:                                               ; preds = %30, %20
  %34 = load ptr, ptr %5, align 8
  %35 = load ptr, ptr %6, align 8
  %36 = load ptr, ptr %7, align 8
  %37 = call ptr @lxb_html_tokenizer_state_char_ref_numeric_end(ptr noundef %34, ptr noundef %35, ptr noundef %36)
  store ptr %37, ptr %4, align 8
  br label %63

38:                                               ; preds = %12
  %39 = load ptr, ptr %5, align 8
  %40 = getelementptr inbounds %struct.lxb_html_tokenizer, ptr %39, i32 0, i32 28
  %41 = load i32, ptr %40, align 4
  %42 = icmp ule i32 %41, 1114111
  br i1 %42, label %43, label %58

43:                                               ; preds = %38
  %44 = load ptr, ptr %5, align 8
  %45 = getelementptr inbounds %struct.lxb_html_tokenizer, ptr %44, i32 0, i32 28
  %46 = load i32, ptr %45, align 4
  %47 = shl i32 %46, 4
  store i32 %47, ptr %45, align 4
  %48 = load ptr, ptr %6, align 8
  %49 = load i8, ptr %48, align 1
  %50 = zext i8 %49 to i64
  %51 = getelementptr inbounds [256 x i8], ptr @lexbor_str_res_map_hex, i64 0, i64 %50
  %52 = load i8, ptr %51, align 1
  %53 = zext i8 %52 to i32
  %54 = load ptr, ptr %5, align 8
  %55 = getelementptr inbounds %struct.lxb_html_tokenizer, ptr %54, i32 0, i32 28
  %56 = load i32, ptr %55, align 4
  %57 = or i32 %56, %53
  store i32 %57, ptr %55, align 4
  br label %58

58:                                               ; preds = %43, %38
  %59 = load ptr, ptr %6, align 8
  %60 = getelementptr inbounds i8, ptr %59, i32 1
  store ptr %60, ptr %6, align 8
  br label %8

61:                                               ; preds = %8
  %62 = load ptr, ptr %6, align 8
  store ptr %62, ptr %4, align 8
  br label %63

63:                                               ; preds = %61, %33
  %64 = load ptr, ptr %4, align 8
  ret ptr %64
}