; Function Attrs: nounwind uwtable
define internal noundef ptr @lxb_html_tokenizer_state_char_ref_hexademical(ptr nocapture noundef %0, ptr noundef %1, ptr noundef %2) #1 {
  %.not21 = icmp eq ptr %1, %2
  br i1 %.not21, label %.loopexit, label %.lr.ph

.lr.ph:                                           ; preds = %3
  %4 = getelementptr inbounds i8, ptr %0, i64 220
  br label %5

5:                                                ; preds = %.lr.ph, %28
  %.01722 = phi ptr [ %1, %.lr.ph ], [ %29, %28 ]
  %6 = load i8, ptr %.01722, align 1
  %7 = zext i8 %6 to i64
  %8 = getelementptr inbounds [256 x i8], ptr @lexbor_str_res_map_hex, i64 0, i64 %7
  %9 = load i8, ptr %8, align 1
  %10 = icmp eq i8 %9, -1
  br i1 %10, label %11, label %17

11:                                               ; preds = %5
  %12 = getelementptr inbounds i8, ptr %0, i64 8
  %13 = load ptr, ptr %12, align 8
  store ptr %13, ptr %0, align 8
  %14 = load i8, ptr %.01722, align 1
  %15 = icmp eq i8 %14, 59
  %spec.select.idx = zext i1 %15 to i64
  %spec.select = getelementptr inbounds i8, ptr %.01722, i64 %spec.select.idx
  %16 = tail call fastcc ptr @lxb_html_tokenizer_state_char_ref_numeric_end(ptr noundef nonnull %0, ptr noundef nonnull %spec.select, ptr noundef %2)
  br label %.loopexit

17:                                               ; preds = %5
  %18 = load i32, ptr %4, align 4
  %19 = icmp ult i32 %18, 1114112
  br i1 %19, label %20, label %28

20:                                               ; preds = %17
  %21 = shl nuw nsw i32 %18, 4
  store i32 %21, ptr %4, align 4
  %22 = load i8, ptr %.01722, align 1
  %23 = zext i8 %22 to i64
  %24 = getelementptr inbounds [256 x i8], ptr @lexbor_str_res_map_hex, i64 0, i64 %23
  %25 = load i8, ptr %24, align 1
  %26 = zext i8 %25 to i32
  %27 = or i32 %21, %26
  store i32 %27, ptr %4, align 4
  br label %28

28:                                               ; preds = %20, %17
  %29 = getelementptr inbounds i8, ptr %.01722, i64 1
  %.not = icmp eq ptr %29, %2
  br i1 %.not, label %.loopexit, label %5

.loopexit:                                        ; preds = %28, %3, %11
  %.0 = phi ptr [ %16, %11 ], [ %1, %3 ], [ %2, %28 ]
  ret ptr %.0
}